target datalayout = "e-m:e-p270:32:32-p271:32:32-p272:64:64-i64:64-i128:128-f80:128-n8:16:32:64-S128"
target triple = "x86_64-pc-linux-gnu"

%struct.FFPsyModel = type { ptr, ptr, ptr, ptr, ptr }
%struct.FFPsyContext = type { ptr, ptr, ptr, ptr, i32, i32, ptr, ptr, i32, %struct.anon, ptr }
%struct.anon = type { i32, i32, i32 }
%struct.AVCodecContext = type { ptr, i32, i32, ptr, i32, i32, ptr, ptr, ptr, i64, i32, i32, ptr, i32, %struct.AVRational, %struct.AVRational, %struct.AVRational, i32, i32, i32, i32, i32, %struct.AVRational, i32, i32, i32, i32, i32, i32, i32, i32, i32, i32, i32, ptr, ptr, i32, float, float, float, float, float, float, float, float, float, i32, i32, i32, i32, i32, i32, i32, i32, i32, i32, i32, i32, ptr, ptr, ptr, i32, i32, i32, i32, i32, i32, i32, i32, i32, i32, %struct.AVChannelLayout, i32, i32, i32, i32, i32, i32, i32, i32, ptr, i32, i32, i32, float, float, i32, i32, i32, i32, i32, ptr, i64, i64, float, float, i32, i32, ptr, ptr, i32, i32, i32, i32, i32, ptr, ptr, ptr, ptr, i32, i32, [8 x i64], i32, i32, i32, i32, i32, i32, i32, ptr, ptr, i32, i32, i32, i32, i32, i32, i32, i32, i32, i32, ptr, ptr, i32, i32, ptr, ptr, ptr, ptr, i32, i32, i64, i32, i32, i64, ptr, i64, ptr, i32, ptr, i32 }
%struct.AVRational = type { i32, i32 }
%struct.AVChannelLayout = type { i32, i32, %union.anon, ptr }
%union.anon = type { i64 }
%struct.FFPsyChannelGroup = type { [20 x ptr], i8, [128 x i8] }
%struct.FFPsyChannel = type { [128 x %struct.FFPsyBand], float }
%struct.FFPsyBand = type { i32, float, float, float }

@ff_aac_psy_model = external constant %struct.FFPsyModel, align 8

; Function Attrs: cold nounwind optsize uwtable
define i32 @ff_psy_init(ptr noundef %0, ptr noundef %1, i32 noundef %2, ptr noundef %3, ptr noundef %4, i32 noundef %5, ptr noundef %6) #0 {
  %8 = alloca i32, align 4
  %9 = alloca ptr, align 8
  %10 = alloca ptr, align 8
  %11 = alloca i32, align 4
  %12 = alloca ptr, align 8
  %13 = alloca ptr, align 8
  %14 = alloca i32, align 4
  %15 = alloca ptr, align 8
  %16 = alloca i32, align 4
  %17 = alloca i32, align 4
  %18 = alloca i32, align 4
  %19 = alloca i32, align 4
  store ptr %0, ptr %9, align 8, !tbaa !4
  store ptr %1, ptr %10, align 8, !tbaa !9
  store i32 %2, ptr %11, align 4, !tbaa !11
  store ptr %3, ptr %12, align 8, !tbaa !13
  store ptr %4, ptr %13, align 8, !tbaa !16
  store i32 %5, ptr %14, align 4, !tbaa !11
  store ptr %6, ptr %15, align 8, !tbaa !18
  call void @llvm.lifetime.start.p0(i64 4, ptr %16) #5
  call void @llvm.lifetime.start.p0(i64 4, ptr %17) #5
  call void @llvm.lifetime.start.p0(i64 4, ptr %18) #5
  store i32 0, ptr %18, align 4, !tbaa !11
  %20 = load ptr, ptr %10, align 8, !tbaa !9
  %21 = load ptr, ptr %9, align 8, !tbaa !4
  %22 = getelementptr inbounds nuw %struct.FFPsyContext, ptr %21, i32 0, i32 0
  store ptr %20, ptr %22, align 8, !tbaa !20
  %23 = load ptr, ptr %10, align 8, !tbaa !9
  %24 = getelementptr inbounds nuw %struct.AVCodecContext, ptr %23, i32 0, i32 71
  %25 = getelementptr inbounds nuw %struct.AVChannelLayout, ptr %24, i32 0, i32 1
  %26 = load i32, ptr %25, align 4, !tbaa !26
  %27 = sext i32 %26 to i64
  %28 = call noalias ptr @av_calloc(i64 noundef %27, i64 noundef 4104)
  %29 = load ptr, ptr %9, align 8, !tbaa !4
  %30 = getelementptr inbounds nuw %struct.FFPsyContext, ptr %29, i32 0, i32 2
  store ptr %28, ptr %30, align 8, !tbaa !42
  %31 = load i32, ptr %14, align 4, !tbaa !11
  %32 = sext i32 %31 to i64
  %33 = call noalias ptr @av_calloc(i64 noundef %32, i64 noundef 296)
  %34 = load ptr, ptr %9, align 8, !tbaa !4
  %35 = getelementptr inbounds nuw %struct.FFPsyContext, ptr %34, i32 0, i32 3
  store ptr %33, ptr %35, align 8, !tbaa !43
  %36 = load i32, ptr %11, align 4, !tbaa !11
  %37 = sext i32 %36 to i64
  %38 = call ptr @av_malloc_array(i64 noundef 8, i64 noundef %37)
  %39 = load ptr, ptr %9, align 8, !tbaa !4
  %40 = getelementptr inbounds nuw %struct.FFPsyContext, ptr %39, i32 0, i32 6
  store ptr %38, ptr %40, align 8, !tbaa !44
  %41 = load i32, ptr %11, align 4, !tbaa !11
  %42 = sext i32 %41 to i64
  %43 = call ptr @av_malloc_array(i64 noundef 4, i64 noundef %42)
  %44 = load ptr, ptr %9, align 8, !tbaa !4
  %45 = getelementptr inbounds nuw %struct.FFPsyContext, ptr %44, i32 0, i32 7
  store ptr %43, ptr %45, align 8, !tbaa !45
  %46 = load ptr, ptr %10, align 8, !tbaa !9
  %47 = getelementptr inbounds nuw %struct.AVCodecContext, ptr %46, i32 0, i32 74
  %48 = load i32, ptr %47, align 8, !tbaa !46
  %49 = load ptr, ptr %9, align 8, !tbaa !4
  %50 = getelementptr inbounds nuw %struct.FFPsyContext, ptr %49, i32 0, i32 5
  store i32 %48, ptr %50, align 4, !tbaa !47
  %51 = load ptr, ptr %9, align 8, !tbaa !4
  %52 = getelementptr inbounds nuw %struct.FFPsyContext, ptr %51, i32 0, i32 2
  %53 = load ptr, ptr %52, align 8, !tbaa !42
  %54 = icmp ne ptr %53, null
  br i1 %54, label %55, label %70

55:                                               ; preds = %7
  %56 = load ptr, ptr %9, align 8, !tbaa !4
  %57 = getelementptr inbounds nuw %struct.FFPsyContext, ptr %56, i32 0, i32 3
  %58 = load ptr, ptr %57, align 8, !tbaa !43
  %59 = icmp ne ptr %58, null
  br i1 %59, label %60, label %70

60:                                               ; preds = %55
  %61 = load ptr, ptr %9, align 8, !tbaa !4
  %62 = getelementptr inbounds nuw %struct.FFPsyContext, ptr %61, i32 0, i32 6
  %63 = load ptr, ptr %62, align 8, !tbaa !44
  %64 = icmp ne ptr %63, null
  br i1 %64, label %65, label %70

65:                                               ; preds = %60
  %66 = load ptr, ptr %9, align 8, !tbaa !4
  %67 = getelementptr inbounds nuw %struct.FFPsyContext, ptr %66, i32 0, i32 7
  %68 = load ptr, ptr %67, align 8, !tbaa !45
  %69 = icmp ne ptr %68, null
  br i1 %69, label %72, label %70

70:                                               ; preds = %65, %60, %55, %7
  %71 = load ptr, ptr %9, align 8, !tbaa !4
  call void @ff_psy_end(ptr noundef %71)
  store i32 -12, ptr %8, align 4
  store i32 1, ptr %19, align 4
  br label %170

72:                                               ; preds = %65
  %73 = load ptr, ptr %9, align 8, !tbaa !4
  %74 = getelementptr inbounds nuw %struct.FFPsyContext, ptr %73, i32 0, i32 6
  %75 = load ptr, ptr %74, align 8, !tbaa !44
  %76 = load ptr, ptr %12, align 8, !tbaa !13
  %77 = load i32, ptr %11, align 4, !tbaa !11
  %78 = sext i32 %77 to i64
  %79 = mul i64 8, %78
  call void @llvm.memcpy.p0.p0.i64(ptr align 8 %75, ptr align 8 %76, i64 %79, i1 false)
  %80 = load ptr, ptr %9, align 8, !tbaa !4
  %81 = getelementptr inbounds nuw %struct.FFPsyContext, ptr %80, i32 0, i32 7
  %82 = load ptr, ptr %81, align 8, !tbaa !45
  %83 = load ptr, ptr %13, align 8, !tbaa !16
  %84 = load i32, ptr %11, align 4, !tbaa !11
  %85 = sext i32 %84 to i64
  %86 = mul i64 4, %85
  call void @llvm.memcpy.p0.p0.i64(ptr align 4 %82, ptr align 4 %83, i64 %86, i1 false)
  store i32 0, ptr %16, align 4, !tbaa !11
  br label %87

87:                                               ; preds = %142, %72
  %88 = load i32, ptr %16, align 4, !tbaa !11
  %89 = load i32, ptr %14, align 4, !tbaa !11
  %90 = icmp slt i32 %88, %89
  br i1 %90, label %91, label %145

91:                                               ; preds = %87
  %92 = load ptr, ptr %15, align 8, !tbaa !18
  %93 = load i32, ptr %16, align 4, !tbaa !11
  %94 = sext i32 %93 to i64
  %95 = getelementptr inbounds i8, ptr %92, i64 %94
  %96 = load i8, ptr %95, align 1, !tbaa !48
  %97 = zext i8 %96 to i32
  %98 = add nsw i32 %97, 1
  %99 = trunc i32 %98 to i8
  %100 = load ptr, ptr %9, align 8, !tbaa !4
  %101 = getelementptr inbounds nuw %struct.FFPsyContext, ptr %100, i32 0, i32 3
  %102 = load ptr, ptr %101, align 8, !tbaa !43
  %103 = load i32, ptr %16, align 4, !tbaa !11
  %104 = sext i32 %103 to i64
  %105 = getelementptr inbounds %struct.FFPsyChannelGroup, ptr %102, i64 %104
  %106 = getelementptr inbounds nuw %struct.FFPsyChannelGroup, ptr %105, i32 0, i32 1
  store i8 %99, ptr %106, align 8, !tbaa !49
  store i32 0, ptr %17, align 4, !tbaa !11
  br label %107

107:                                              ; preds = %138, %91
  %108 = load i32, ptr %17, align 4, !tbaa !11
  %109 = load ptr, ptr %9, align 8, !tbaa !4
  %110 = getelementptr inbounds nuw %struct.FFPsyContext, ptr %109, i32 0, i32 3
  %111 = load ptr, ptr %110, align 8, !tbaa !43
  %112 = load i32, ptr %16, align 4, !tbaa !11
  %113 = sext i32 %112 to i64
  %114 = getelementptr inbounds %struct.FFPsyChannelGroup, ptr %111, i64 %113
  %115 = getelementptr inbounds nuw %struct.FFPsyChannelGroup, ptr %114, i32 0, i32 1
  %116 = load i8, ptr %115, align 8, !tbaa !49
  %117 = zext i8 %116 to i32
  %118 = mul nsw i32 %117, 2
  %119 = icmp slt i32 %108, %118
  br i1 %119, label %120, label %141

120:                                              ; preds = %107
  %121 = load ptr, ptr %9, align 8, !tbaa !4
  %122 = getelementptr inbounds nuw %struct.FFPsyContext, ptr %121, i32 0, i32 2
  %123 = load ptr, ptr %122, align 8, !tbaa !42
  %124 = load i32, ptr %18, align 4, !tbaa !11
  %125 = add nsw i32 %124, 1
  store i32 %125, ptr %18, align 4, !tbaa !11
  %126 = sext i32 %124 to i64
  %127 = getelementptr inbounds %struct.FFPsyChannel, ptr %123, i64 %126
  %128 = load ptr, ptr %9, align 8, !tbaa !4
  %129 = getelementptr inbounds nuw %struct.FFPsyContext, ptr %128, i32 0, i32 3
  %130 = load ptr, ptr %129, align 8, !tbaa !43
  %131 = load i32, ptr %16, align 4, !tbaa !11
  %132 = sext i32 %131 to i64
  %133 = getelementptr inbounds %struct.FFPsyChannelGroup, ptr %130, i64 %132
  %134 = getelementptr inbounds nuw %struct.FFPsyChannelGroup, ptr %133, i32 0, i32 0
  %135 = load i32, ptr %17, align 4, !tbaa !11
  %136 = sext i32 %135 to i64
  %137 = getelementptr inbounds [20 x ptr], ptr %134, i64 0, i64 %136
  store ptr %127, ptr %137, align 8, !tbaa !51
  br label %138

138:                                              ; preds = %120
  %139 = load i32, ptr %17, align 4, !tbaa !11
  %140 = add nsw i32 %139, 1
  store i32 %140, ptr %17, align 4, !tbaa !11
  br label %107, !llvm.loop !52

141:                                              ; preds = %107
  br label %142

142:                                              ; preds = %141
  %143 = load i32, ptr %16, align 4, !tbaa !11
  %144 = add nsw i32 %143, 1
  store i32 %144, ptr %16, align 4, !tbaa !11
  br label %87, !llvm.loop !54

145:                                              ; preds = %87
  %146 = load ptr, ptr %9, align 8, !tbaa !4
  %147 = getelementptr inbounds nuw %struct.FFPsyContext, ptr %146, i32 0, i32 0
  %148 = load ptr, ptr %147, align 8, !tbaa !20
  %149 = getelementptr inbounds nuw %struct.AVCodecContext, ptr %148, i32 0, i32 4
  %150 = load i32, ptr %149, align 8, !tbaa !55
  switch i32 %150, label %154 [
    i32 86018, label %151
  ]

151:                                              ; preds = %145
  %152 = load ptr, ptr %9, align 8, !tbaa !4
  %153 = getelementptr inbounds nuw %struct.FFPsyContext, ptr %152, i32 0, i32 1
  store ptr @ff_aac_psy_model, ptr %153, align 8, !tbaa !56
  br label %154

154:                                              ; preds = %145, %151
  %155 = load ptr, ptr %9, align 8, !tbaa !4
  %156 = getelementptr inbounds nuw %struct.FFPsyContext, ptr %155, i32 0, i32 1
  %157 = load ptr, ptr %156, align 8, !tbaa !56
  %158 = getelementptr inbounds nuw %struct.FFPsyModel, ptr %157, i32 0, i32 1
  %159 = load ptr, ptr %158, align 8, !tbaa !57
  %160 = icmp ne ptr %159, null
  br i1 %160, label %161, label %169

161:                                              ; preds = %154
  %162 = load ptr, ptr %9, align 8, !tbaa !4
  %163 = getelementptr inbounds nuw %struct.FFPsyContext, ptr %162, i32 0, i32 1
  %164 = load ptr, ptr %163, align 8, !tbaa !56
  %165 = getelementptr inbounds nuw %struct.FFPsyModel, ptr %164, i32 0, i32 1
  %166 = load ptr, ptr %165, align 8, !tbaa !57
  %167 = load ptr, ptr %9, align 8, !tbaa !4
  %168 = call i32 %166(ptr noundef %167)
  store i32 %168, ptr %8, align 4
  store i32 1, ptr %19, align 4
  br label %170

169:                                              ; preds = %154
  store i32 0, ptr %8, align 4
  store i32 1, ptr %19, align 4
  br label %170

170:                                              ; preds = %169, %161, %70
  call void @llvm.lifetime.end.p0(i64 4, ptr %18) #5
  call void @llvm.lifetime.end.p0(i64 4, ptr %17) #5
  call void @llvm.lifetime.end.p0(i64 4, ptr %16) #5
  %171 = load i32, ptr %8, align 4
  ret i32 %171
}