; Function Attrs: cold nounwind optsize uwtable
define i32 @ff_psy_init(ptr noundef initializes((0, 8), (16, 32), (36, 56)) %0, ptr noundef %1, i32 noundef %2, ptr noundef readonly captures(none) %3, ptr noundef readonly captures(none) %4, i32 noundef %5, ptr noundef readonly captures(none) %6) local_unnamed_addr #0 {
  store ptr %1, ptr %0, align 8, !tbaa !4
  %8 = getelementptr inbounds nuw i8, ptr %1, i64 356
  %9 = load i32, ptr %8, align 4, !tbaa !18
  %10 = sext i32 %9 to i64
  %11 = tail call noalias ptr @av_calloc(i64 noundef %10, i64 noundef 4104) #5
  %12 = getelementptr inbounds nuw i8, ptr %0, i64 16
  store ptr %11, ptr %12, align 8, !tbaa !35
  %13 = sext i32 %5 to i64
  %14 = tail call noalias ptr @av_calloc(i64 noundef %13, i64 noundef 296) #5
  %15 = getelementptr inbounds nuw i8, ptr %0, i64 24
  store ptr %14, ptr %15, align 8, !tbaa !36
  %16 = sext i32 %2 to i64
  %17 = tail call ptr @av_malloc_array(i64 noundef 8, i64 noundef %16) #5
  %18 = getelementptr inbounds nuw i8, ptr %0, i64 40
  store ptr %17, ptr %18, align 8, !tbaa !37
  %19 = tail call ptr @av_malloc_array(i64 noundef 4, i64 noundef %16) #5
  %20 = getelementptr inbounds nuw i8, ptr %0, i64 48
  store ptr %19, ptr %20, align 8, !tbaa !38
  %21 = getelementptr inbounds nuw i8, ptr %1, i64 384
  %22 = load i32, ptr %21, align 8, !tbaa !39
  %23 = getelementptr inbounds nuw i8, ptr %0, i64 36
  store i32 %22, ptr %23, align 4, !tbaa !40
  %24 = load ptr, ptr %12, align 8, !tbaa !35
  %.not = icmp eq ptr %24, null
  br i1 %.not, label %29, label %25

25:                                               ; preds = %7
  %26 = load ptr, ptr %15, align 8, !tbaa !36
  %.not49 = icmp eq ptr %26, null
  br i1 %.not49, label %29, label %27

27:                                               ; preds = %25
  %28 = load ptr, ptr %18, align 8, !tbaa !37
  %.not50 = icmp eq ptr %28, null
  %.not51 = icmp eq ptr %19, null
  %or.cond = select i1 %.not50, i1 true, i1 %.not51
  br i1 %or.cond, label %29, label %30

29:                                               ; preds = %27, %25, %7
  tail call void @ff_psy_end(ptr noundef nonnull %0)
  br label %59

30:                                               ; preds = %27
  %31 = shl nsw i64 %16, 3
  tail call void @llvm.memcpy.p0.p0.i64(ptr nonnull align 8 %28, ptr align 8 %3, i64 %31, i1 false)
  %32 = load ptr, ptr %20, align 8, !tbaa !38
  %33 = shl nsw i64 %16, 2
  tail call void @llvm.memcpy.p0.p0.i64(ptr align 4 %32, ptr align 4 %4, i64 %33, i1 false)
  %34 = icmp sgt i32 %5, 0
  br i1 %34, label %.lr.ph58, label %._crit_edge59

.lr.ph58:                                         ; preds = %30
  %35 = load ptr, ptr %15, align 8, !tbaa !36
  %wide.trip.count69 = zext nneg i32 %5 to i64
  br label %36

36:                                               ; preds = %.lr.ph58, %._crit_edge
  %indvars.iv66 = phi i64 [ 0, %.lr.ph58 ], [ %indvars.iv.next67, %._crit_edge ]
  %.056 = phi i32 [ 0, %.lr.ph58 ], [ %.1.lcssa, %._crit_edge ]
  %37 = getelementptr inbounds nuw i8, ptr %6, i64 %indvars.iv66
  %38 = load i8, ptr %37, align 1, !tbaa !41
  %39 = add i8 %38, 1
  %40 = getelementptr inbounds nuw %struct.FFPsyChannelGroup, ptr %35, i64 %indvars.iv66, i32 1
  store i8 %39, ptr %40, align 8, !tbaa !42
  %41 = getelementptr inbounds nuw %struct.FFPsyChannelGroup, ptr %35, i64 %indvars.iv66
  %.not60 = icmp eq i8 %39, 0
  br i1 %.not60, label %._crit_edge, label %.lr.ph.preheader

.lr.ph.preheader:                                 ; preds = %36
  %42 = zext i8 %39 to i64
  %wide.trip.count = shl nuw nsw i64 %42, 1
  %43 = sext i32 %.056 to i64
  br label %.lr.ph

.lr.ph:                                           ; preds = %.lr.ph.preheader, %.lr.ph
  %indvars.iv61 = phi i64 [ 0, %.lr.ph.preheader ], [ %indvars.iv.next62, %.lr.ph ]
  %indvars.iv = phi i64 [ %43, %.lr.ph.preheader ], [ %indvars.iv.next, %.lr.ph ]
  %44 = load ptr, ptr %12, align 8, !tbaa !35
  %indvars.iv.next = add nsw i64 %indvars.iv, 1
  %45 = getelementptr inbounds %struct.FFPsyChannel, ptr %44, i64 %indvars.iv
  %46 = getelementptr inbounds nuw [20 x ptr], ptr %41, i64 0, i64 %indvars.iv61
  store ptr %45, ptr %46, align 8, !tbaa !44
  %indvars.iv.next62 = add nuw nsw i64 %indvars.iv61, 1
  %exitcond.not = icmp eq i64 %indvars.iv.next62, %wide.trip.count
  br i1 %exitcond.not, label %._crit_edge.loopexit, label %.lr.ph, !llvm.loop !45

._crit_edge.loopexit:                             ; preds = %.lr.ph
  %47 = trunc nsw i64 %indvars.iv.next to i32
  br label %._crit_edge

._crit_edge:                                      ; preds = %._crit_edge.loopexit, %36
  %.1.lcssa = phi i32 [ %.056, %36 ], [ %47, %._crit_edge.loopexit ]
  %indvars.iv.next67 = add nuw nsw i64 %indvars.iv66, 1
  %exitcond70.not = icmp eq i64 %indvars.iv.next67, %wide.trip.count69
  br i1 %exitcond70.not, label %._crit_edge59, label %36, !llvm.loop !47

._crit_edge59:                                    ; preds = %._crit_edge, %30
  %48 = load ptr, ptr %0, align 8, !tbaa !4
  %49 = getelementptr inbounds nuw i8, ptr %48, i64 24
  %50 = load i32, ptr %49, align 8, !tbaa !48
  %cond = icmp eq i32 %50, 86018
  %51 = getelementptr inbounds nuw i8, ptr %0, i64 8
  br i1 %cond, label %52, label %._crit_edge59._crit_edge

._crit_edge59._crit_edge:                         ; preds = %._crit_edge59
  %.pre = load ptr, ptr %51, align 8, !tbaa !49
  br label %53

52:                                               ; preds = %._crit_edge59
  store ptr @ff_aac_psy_model, ptr %51, align 8, !tbaa !49
  br label %53

53:                                               ; preds = %._crit_edge59._crit_edge, %52
  %54 = phi ptr [ %.pre, %._crit_edge59._crit_edge ], [ @ff_aac_psy_model, %52 ]
  %55 = getelementptr inbounds nuw i8, ptr %54, i64 8
  %56 = load ptr, ptr %55, align 8, !tbaa !50
  %.not52 = icmp eq ptr %56, null
  br i1 %.not52, label %59, label %57

57:                                               ; preds = %53
  %58 = tail call i32 %56(ptr noundef nonnull %0) #5
  br label %59

59:                                               ; preds = %53, %57, %29
  %.046 = phi i32 [ %58, %57 ], [ -12, %29 ], [ 0, %53 ]
  ret i32 %.046
}